; Function Attrs: mustprogress nofree norecurse nosync nounwind willreturn memory(argmem: readwrite) uwtable
define void @_ZN7glslang15HlslTokenStream11recedeTokenEv(ptr nocapture noundef nonnull align 8 dereferenceable(324) %0) local_unnamed_addr #0 align 2 {
  %2 = getelementptr inbounds i8, ptr %0, i64 8
  %3 = getelementptr inbounds i8, ptr %0, i64 152
  %4 = getelementptr inbounds i8, ptr %0, i64 232
  %5 = load i32, ptr %4, align 8
  %6 = add nsw i32 %5, 1
  store i32 %6, ptr %4, align 8
  %7 = sext i32 %5 to i64
  %8 = getelementptr inbounds [2 x %"struct.glslang::HlslToken"], ptr %3, i64 0, i64 %7
  tail call void @llvm.memcpy.p0.p0.i64(ptr noundef nonnull align 8 dereferenceable(40) %8, ptr noundef nonnull readonly align 8 dereferenceable(40) %2, i64 40, i1 false)
  %9 = getelementptr inbounds i8, ptr %0, i64 320
  %10 = load i32, ptr %9, align 8, !noalias !11
  %11 = add nsw i32 %10, 1
  %12 = srem i32 %11, 2
  store i32 %12, ptr %9, align 8, !noalias !11
  %13 = getelementptr inbounds i8, ptr %0, i64 240
  %14 = sext i32 %12 to i64
  %15 = getelementptr inbounds [2 x %"struct.glslang::HlslToken"], ptr %13, i64 0, i64 %14
  tail call void @llvm.memcpy.p0.p0.i64(ptr noundef nonnull align 8 dereferenceable(40) %2, ptr noundef nonnull align 8 dereferenceable(40) %15, i64 40, i1 false)
  ret void
}